; Function Attrs: nounwind uwtable
define internal range(i32 -1, 1) i32 @xmlparse_buffer_text_setter(ptr noundef captures(none) %0, ptr noundef %1, ptr readnone captures(none) %2) #0 {
  %4 = icmp eq ptr %1, null
  br i1 %4, label %5, label %7

5:                                                ; preds = %3
  %6 = load ptr, ptr @PyExc_RuntimeError, align 8, !tbaa !14
  tail call void @PyErr_SetString(ptr noundef %6, ptr noundef nonnull @.str.136) #8
  br label %32

7:                                                ; preds = %3
  %8 = tail call i32 @PyObject_IsTrue(ptr noundef nonnull %1) #8
  %9 = icmp slt i32 %8, 0
  br i1 %9, label %32, label %10

10:                                               ; preds = %7
  %.not = icmp eq i32 %8, 0
  %11 = getelementptr inbounds nuw i8, ptr %0, i64 40
  %12 = load ptr, ptr %11, align 8, !tbaa !29
  %.not15 = icmp eq ptr %12, null
  br i1 %.not, label %24, label %13

13:                                               ; preds = %10
  br i1 %.not15, label %14, label %32

14:                                               ; preds = %13
  %15 = getelementptr inbounds nuw i8, ptr %0, i64 48
  %16 = load i32, ptr %15, align 8, !tbaa !34
  %17 = sext i32 %16 to i64
  %18 = tail call ptr @PyMem_Malloc(i64 noundef %17) #8
  store ptr %18, ptr %11, align 8, !tbaa !29
  %19 = icmp eq ptr %18, null
  br i1 %19, label %20, label %22

20:                                               ; preds = %14
  %21 = tail call ptr @PyErr_NoMemory() #8
  br label %32

22:                                               ; preds = %14
  %23 = getelementptr inbounds nuw i8, ptr %0, i64 52
  store i32 0, ptr %23, align 4, !tbaa !35
  br label %32

24:                                               ; preds = %10
  br i1 %.not15, label %32, label %25

25:                                               ; preds = %24
  %26 = getelementptr inbounds nuw i8, ptr %0, i64 52
  %27 = load i32, ptr %26, align 4, !tbaa !35
  %28 = icmp eq i32 %27, 0
  br i1 %28, label %flush_character_buffer.exit.thread, label %flush_character_buffer.exit

flush_character_buffer.exit:                      ; preds = %25
  %29 = tail call fastcc i32 @call_character_handler(ptr noundef nonnull %0, ptr noundef nonnull %12, i32 noundef %27)
  store i32 0, ptr %26, align 4, !tbaa !35
  %30 = icmp slt i32 %29, 0
  br i1 %30, label %32, label %flush_character_buffer.exit.flush_character_buffer.exit.thread_crit_edge

flush_character_buffer.exit.flush_character_buffer.exit.thread_crit_edge: ; preds = %flush_character_buffer.exit
  %.pre = load ptr, ptr %11, align 8, !tbaa !29
  br label %flush_character_buffer.exit.thread

flush_character_buffer.exit.thread:               ; preds = %flush_character_buffer.exit.flush_character_buffer.exit.thread_crit_edge, %25
  %31 = phi ptr [ %.pre, %flush_character_buffer.exit.flush_character_buffer.exit.thread_crit_edge ], [ %12, %25 ]
  tail call void @PyMem_Free(ptr noundef %31) #8
  store ptr null, ptr %11, align 8, !tbaa !29
  br label %32

32:                                               ; preds = %20, %7, %flush_character_buffer.exit, %24, %flush_character_buffer.exit.thread, %13, %22, %5
  %.0 = phi i32 [ -1, %5 ], [ -1, %20 ], [ -1, %7 ], [ -1, %flush_character_buffer.exit ], [ 0, %24 ], [ 0, %flush_character_buffer.exit.thread ], [ 0, %13 ], [ 0, %22 ]
  ret i32 %.0
}